target datalayout = "e-m:e-p270:32:32-p271:32:32-p272:64:64-i64:64-i128:128-f80:128-n8:16:32:64-S128"
target triple = "x86_64-pc-linux-gnu"

; Function Attrs: nounwind uwtable
define ptr @zend_hash_str_find_ptr_lc(ptr noundef %0, ptr noundef %1, i64 noundef %2) #0 {
  %4 = alloca ptr, align 8
  %5 = alloca ptr, align 8
  %6 = alloca ptr, align 8
  %7 = alloca i64, align 8
  %8 = alloca ptr, align 8
  %9 = alloca ptr, align 8
  %10 = alloca ptr, align 8
  %11 = alloca i64, align 8
  %12 = alloca ptr, align 8
  %13 = alloca ptr, align 8
  %14 = alloca i8, align 1
  store ptr %0, ptr %9, align 8
  store ptr %1, ptr %10, align 8
  store i64 %2, ptr %11, align 8
  %15 = load i64, ptr %11, align 8
  %16 = add i64 %15, 1
  %17 = icmp ugt i64 %16, 32768
  %18 = xor i1 %17, true
  %19 = xor i1 %18, true
  %20 = zext i1 %19 to i32
  %21 = sext i32 %20 to i64
  %22 = icmp ne i64 %21, 0
  %23 = zext i1 %22 to i8
  store i8 %23, ptr %14, align 1
  br i1 %22, label %24, label %288

24:                                               ; preds = %3
  %25 = load i64, ptr %11, align 8
  %26 = add i64 %25, 1
  %27 = call i1 @llvm.is.constant.i64(i64 %26)
  br i1 %27, label %28, label %282

28:                                               ; preds = %24
  %29 = load i64, ptr %11, align 8
  %30 = add i64 %29, 1
  %31 = icmp ule i64 %30, 8
  br i1 %31, label %32, label %34

32:                                               ; preds = %28
  %33 = call noalias ptr @_emalloc_8()
  br label %280

34:                                               ; preds = %28
  %35 = load i64, ptr %11, align 8
  %36 = add i64 %35, 1
  %37 = icmp ule i64 %36, 16
  br i1 %37, label %38, label %40

38:                                               ; preds = %34
  %39 = call noalias ptr @_emalloc_16()
  br label %278

40:                                               ; preds = %34
  %41 = load i64, ptr %11, align 8
  %42 = add i64 %41, 1
  %43 = icmp ule i64 %42, 24
  br i1 %43, label %44, label %46

44:                                               ; preds = %40
  %45 = call noalias ptr @_emalloc_24()
  br label %276

46:                                               ; preds = %40
  %47 = load i64, ptr %11, align 8
  %48 = add i64 %47, 1
  %49 = icmp ule i64 %48, 32
  br i1 %49, label %50, label %52

50:                                               ; preds = %46
  %51 = call noalias ptr @_emalloc_32()
  br label %274

52:                                               ; preds = %46
  %53 = load i64, ptr %11, align 8
  %54 = add i64 %53, 1
  %55 = icmp ule i64 %54, 40
  br i1 %55, label %56, label %58

56:                                               ; preds = %52
  %57 = call noalias ptr @_emalloc_40()
  br label %272

58:                                               ; preds = %52
  %59 = load i64, ptr %11, align 8
  %60 = add i64 %59, 1
  %61 = icmp ule i64 %60, 48
  br i1 %61, label %62, label %64

62:                                               ; preds = %58
  %63 = call noalias ptr @_emalloc_48()
  br label %270

64:                                               ; preds = %58
  %65 = load i64, ptr %11, align 8
  %66 = add i64 %65, 1
  %67 = icmp ule i64 %66, 56
  br i1 %67, label %68, label %70

68:                                               ; preds = %64
  %69 = call noalias ptr @_emalloc_56()
  br label %268

70:                                               ; preds = %64
  %71 = load i64, ptr %11, align 8
  %72 = add i64 %71, 1
  %73 = icmp ule i64 %72, 64
  br i1 %73, label %74, label %76

74:                                               ; preds = %70
  %75 = call noalias ptr @_emalloc_64()
  br label %266

76:                                               ; preds = %70
  %77 = load i64, ptr %11, align 8
  %78 = add i64 %77, 1
  %79 = icmp ule i64 %78, 80
  br i1 %79, label %80, label %82

80:                                               ; preds = %76
  %81 = call noalias ptr @_emalloc_80()
  br label %264

82:                                               ; preds = %76
  %83 = load i64, ptr %11, align 8
  %84 = add i64 %83, 1
  %85 = icmp ule i64 %84, 96
  br i1 %85, label %86, label %88

86:                                               ; preds = %82
  %87 = call noalias ptr @_emalloc_96()
  br label %262

88:                                               ; preds = %82
  %89 = load i64, ptr %11, align 8
  %90 = add i64 %89, 1
  %91 = icmp ule i64 %90, 112
  br i1 %91, label %92, label %94

92:                                               ; preds = %88
  %93 = call noalias ptr @_emalloc_112()
  br label %260

94:                                               ; preds = %88
  %95 = load i64, ptr %11, align 8
  %96 = add i64 %95, 1
  %97 = icmp ule i64 %96, 128
  br i1 %97, label %98, label %100

98:                                               ; preds = %94
  %99 = call noalias ptr @_emalloc_128()
  br label %258

100:                                              ; preds = %94
  %101 = load i64, ptr %11, align 8
  %102 = add i64 %101, 1
  %103 = icmp ule i64 %102, 160
  br i1 %103, label %104, label %106

104:                                              ; preds = %100
  %105 = call noalias ptr @_emalloc_160()
  br label %256

106:                                              ; preds = %100
  %107 = load i64, ptr %11, align 8
  %108 = add i64 %107, 1
  %109 = icmp ule i64 %108, 192
  br i1 %109, label %110, label %112

110:                                              ; preds = %106
  %111 = call noalias ptr @_emalloc_192()
  br label %254

112:                                              ; preds = %106
  %113 = load i64, ptr %11, align 8
  %114 = add i64 %113, 1
  %115 = icmp ule i64 %114, 224
  br i1 %115, label %116, label %118

116:                                              ; preds = %112
  %117 = call noalias ptr @_emalloc_224()
  br label %252

118:                                              ; preds = %112
  %119 = load i64, ptr %11, align 8
  %120 = add i64 %119, 1
  %121 = icmp ule i64 %120, 256
  br i1 %121, label %122, label %124

122:                                              ; preds = %118
  %123 = call noalias ptr @_emalloc_256()
  br label %250

124:                                              ; preds = %118
  %125 = load i64, ptr %11, align 8
  %126 = add i64 %125, 1
  %127 = icmp ule i64 %126, 320
  br i1 %127, label %128, label %130

128:                                              ; preds = %124
  %129 = call noalias ptr @_emalloc_320()
  br label %248

130:                                              ; preds = %124
  %131 = load i64, ptr %11, align 8
  %132 = add i64 %131, 1
  %133 = icmp ule i64 %132, 384
  br i1 %133, label %134, label %136

134:                                              ; preds = %130
  %135 = call noalias ptr @_emalloc_384()
  br label %246

136:                                              ; preds = %130
  %137 = load i64, ptr %11, align 8
  %138 = add i64 %137, 1
  %139 = icmp ule i64 %138, 448
  br i1 %139, label %140, label %142

140:                                              ; preds = %136
  %141 = call noalias ptr @_emalloc_448()
  br label %244

142:                                              ; preds = %136
  %143 = load i64, ptr %11, align 8
  %144 = add i64 %143, 1
  %145 = icmp ule i64 %144, 512
  br i1 %145, label %146, label %148

146:                                              ; preds = %142
  %147 = call noalias ptr @_emalloc_512()
  br label %242

148:                                              ; preds = %142
  %149 = load i64, ptr %11, align 8
  %150 = add i64 %149, 1
  %151 = icmp ule i64 %150, 640
  br i1 %151, label %152, label %154

152:                                              ; preds = %148
  %153 = call noalias ptr @_emalloc_640()
  br label %240

154:                                              ; preds = %148
  %155 = load i64, ptr %11, align 8
  %156 = add i64 %155, 1
  %157 = icmp ule i64 %156, 768
  br i1 %157, label %158, label %160

158:                                              ; preds = %154
  %159 = call noalias ptr @_emalloc_768()
  br label %238

160:                                              ; preds = %154
  %161 = load i64, ptr %11, align 8
  %162 = add i64 %161, 1
  %163 = icmp ule i64 %162, 896
  br i1 %163, label %164, label %166

164:                                              ; preds = %160
  %165 = call noalias ptr @_emalloc_896()
  br label %236

166:                                              ; preds = %160
  %167 = load i64, ptr %11, align 8
  %168 = add i64 %167, 1
  %169 = icmp ule i64 %168, 1024
  br i1 %169, label %170, label %172

170:                                              ; preds = %166
  %171 = call noalias ptr @_emalloc_1024()
  br label %234

172:                                              ; preds = %166
  %173 = load i64, ptr %11, align 8
  %174 = add i64 %173, 1
  %175 = icmp ule i64 %174, 1280
  br i1 %175, label %176, label %178

176:                                              ; preds = %172
  %177 = call noalias ptr @_emalloc_1280()
  br label %232

178:                                              ; preds = %172
  %179 = load i64, ptr %11, align 8
  %180 = add i64 %179, 1
  %181 = icmp ule i64 %180, 1536
  br i1 %181, label %182, label %184

182:                                              ; preds = %178
  %183 = call noalias ptr @_emalloc_1536()
  br label %230

184:                                              ; preds = %178
  %185 = load i64, ptr %11, align 8
  %186 = add i64 %185, 1
  %187 = icmp ule i64 %186, 1792
  br i1 %187, label %188, label %190

188:                                              ; preds = %184
  %189 = call noalias ptr @_emalloc_1792()
  br label %228

190:                                              ; preds = %184
  %191 = load i64, ptr %11, align 8
  %192 = add i64 %191, 1
  %193 = icmp ule i64 %192, 2048
  br i1 %193, label %194, label %196

194:                                              ; preds = %190
  %195 = call noalias ptr @_emalloc_2048()
  br label %226

196:                                              ; preds = %190
  %197 = load i64, ptr %11, align 8
  %198 = add i64 %197, 1
  %199 = icmp ule i64 %198, 2560
  br i1 %199, label %200, label %202

200:                                              ; preds = %196
  %201 = call noalias ptr @_emalloc_2560()
  br label %224

202:                                              ; preds = %196
  %203 = load i64, ptr %11, align 8
  %204 = add i64 %203, 1
  %205 = icmp ule i64 %204, 3072
  br i1 %205, label %206, label %208

206:                                              ; preds = %202
  %207 = call noalias ptr @_emalloc_3072()
  br label %222

208:                                              ; preds = %202
  %209 = load i64, ptr %11, align 8
  %210 = add i64 %209, 1
  %211 = icmp ule i64 %210, 2093056
  br i1 %211, label %212, label %216

212:                                              ; preds = %208
  %213 = load i64, ptr %11, align 8
  %214 = add i64 %213, 1
  %215 = call noalias ptr @_emalloc_large(i64 noundef %214) #14
  br label %220

216:                                              ; preds = %208
  %217 = load i64, ptr %11, align 8
  %218 = add i64 %217, 1
  %219 = call noalias ptr @_emalloc_huge(i64 noundef %218) #14
  br label %220

220:                                              ; preds = %216, %212
  %221 = phi ptr [ %215, %212 ], [ %219, %216 ]
  br label %222

222:                                              ; preds = %220, %206
  %223 = phi ptr [ %207, %206 ], [ %221, %220 ]
  br label %224

224:                                              ; preds = %222, %200
  %225 = phi ptr [ %201, %200 ], [ %223, %222 ]
  br label %226

226:                                              ; preds = %224, %194
  %227 = phi ptr [ %195, %194 ], [ %225, %224 ]
  br label %228

228:                                              ; preds = %226, %188
  %229 = phi ptr [ %189, %188 ], [ %227, %226 ]
  br label %230

230:                                              ; preds = %228, %182
  %231 = phi ptr [ %183, %182 ], [ %229, %228 ]
  br label %232

232:                                              ; preds = %230, %176
  %233 = phi ptr [ %177, %176 ], [ %231, %230 ]
  br label %234

234:                                              ; preds = %232, %170
  %235 = phi ptr [ %171, %170 ], [ %233, %232 ]
  br label %236

236:                                              ; preds = %234, %164
  %237 = phi ptr [ %165, %164 ], [ %235, %234 ]
  br label %238

238:                                              ; preds = %236, %158
  %239 = phi ptr [ %159, %158 ], [ %237, %236 ]
  br label %240

240:                                              ; preds = %238, %152
  %241 = phi ptr [ %153, %152 ], [ %239, %238 ]
  br label %242

242:                                              ; preds = %240, %146
  %243 = phi ptr [ %147, %146 ], [ %241, %240 ]
  br label %244

244:                                              ; preds = %242, %140
  %245 = phi ptr [ %141, %140 ], [ %243, %242 ]
  br label %246

246:                                              ; preds = %244, %134
  %247 = phi ptr [ %135, %134 ], [ %245, %244 ]
  br label %248

248:                                              ; preds = %246, %128
  %249 = phi ptr [ %129, %128 ], [ %247, %246 ]
  br label %250

250:                                              ; preds = %248, %122
  %251 = phi ptr [ %123, %122 ], [ %249, %248 ]
  br label %252

252:                                              ; preds = %250, %116
  %253 = phi ptr [ %117, %116 ], [ %251, %250 ]
  br label %254

254:                                              ; preds = %252, %110
  %255 = phi ptr [ %111, %110 ], [ %253, %252 ]
  br label %256

256:                                              ; preds = %254, %104
  %257 = phi ptr [ %105, %104 ], [ %255, %254 ]
  br label %258

258:                                              ; preds = %256, %98
  %259 = phi ptr [ %99, %98 ], [ %257, %256 ]
  br label %260

260:                                              ; preds = %258, %92
  %261 = phi ptr [ %93, %92 ], [ %259, %258 ]
  br label %262

262:                                              ; preds = %260, %86
  %263 = phi ptr [ %87, %86 ], [ %261, %260 ]
  br label %264

264:                                              ; preds = %262, %80
  %265 = phi ptr [ %81, %80 ], [ %263, %262 ]
  br label %266

266:                                              ; preds = %264, %74
  %267 = phi ptr [ %75, %74 ], [ %265, %264 ]
  br label %268

268:                                              ; preds = %266, %68
  %269 = phi ptr [ %69, %68 ], [ %267, %266 ]
  br label %270

270:                                              ; preds = %268, %62
  %271 = phi ptr [ %63, %62 ], [ %269, %268 ]
  br label %272

272:                                              ; preds = %270, %56
  %273 = phi ptr [ %57, %56 ], [ %271, %270 ]
  br label %274

274:                                              ; preds = %272, %50
  %275 = phi ptr [ %51, %50 ], [ %273, %272 ]
  br label %276

276:                                              ; preds = %274, %44
  %277 = phi ptr [ %45, %44 ], [ %275, %274 ]
  br label %278

278:                                              ; preds = %276, %38
  %279 = phi ptr [ %39, %38 ], [ %277, %276 ]
  br label %280

280:                                              ; preds = %278, %32
  %281 = phi ptr [ %33, %32 ], [ %279, %278 ]
  br label %286

282:                                              ; preds = %24
  %283 = load i64, ptr %11, align 8
  %284 = add i64 %283, 1
  %285 = call noalias ptr @_emalloc(i64 noundef %284) #14
  br label %286

286:                                              ; preds = %282, %280
  %287 = phi ptr [ %281, %280 ], [ %285, %282 ]
  br label %292

288:                                              ; preds = %3
  %289 = load i64, ptr %11, align 8
  %290 = add i64 %289, 1
  %291 = alloca i8, i64 %290, align 16
  br label %292

292:                                              ; preds = %288, %286
  %293 = phi ptr [ %287, %286 ], [ %291, %288 ]
  %294 = load ptr, ptr %10, align 8
  %295 = load i64, ptr %11, align 8
  %296 = call ptr @zend_str_tolower_copy(ptr noundef %293, ptr noundef %294, i64 noundef %295)
  store ptr %296, ptr %13, align 8
  %297 = load ptr, ptr %9, align 8
  %298 = load ptr, ptr %13, align 8
  %299 = load i64, ptr %11, align 8
  store ptr %297, ptr %5, align 8
  store ptr %298, ptr %6, align 8
  store i64 %299, ptr %7, align 8
  %300 = load ptr, ptr %5, align 8
  %301 = load ptr, ptr %6, align 8
  %302 = load i64, ptr %7, align 8
  %303 = call ptr @zend_hash_str_find(ptr noundef %300, ptr noundef %301, i64 noundef %302)
  store ptr %303, ptr %8, align 8
  %304 = load ptr, ptr %8, align 8
  %305 = icmp ne ptr %304, null
  br i1 %305, label %306, label %312

306:                                              ; preds = %292
  %307 = load ptr, ptr %8, align 8
  %308 = load ptr, ptr %307, align 8
  %309 = icmp ne ptr %308, null
  call void @llvm.assume(i1 %309)
  %310 = load ptr, ptr %8, align 8
  %311 = load ptr, ptr %310, align 8
  store ptr %311, ptr %4, align 8
  br label %313

312:                                              ; preds = %292
  store ptr null, ptr %4, align 8
  br label %313

313:                                              ; preds = %312, %306
  %314 = load ptr, ptr %4, align 8
  store ptr %314, ptr %12, align 8
  br label %315

315:                                              ; preds = %313
  %316 = load i8, ptr %14, align 1
  %317 = trunc i8 %316 to i1
  %318 = xor i1 %317, true
  %319 = xor i1 %318, true
  %320 = zext i1 %319 to i32
  %321 = sext i32 %320 to i64
  %322 = icmp ne i64 %321, 0
  br i1 %322, label %323, label %325

323:                                              ; preds = %315
  %324 = load ptr, ptr %13, align 8
  call void @_efree(ptr noundef %324)
  br label %325

325:                                              ; preds = %323, %315
  br label %326

326:                                              ; preds = %325
  %327 = load ptr, ptr %12, align 8
  ret ptr %327
}