; Function Attrs: nounwind uwtable
define noundef ptr @zend_hash_str_find_ptr_lc(ptr nocapture noundef readonly %0, ptr noundef %1, i64 noundef %2) local_unnamed_addr #0 {
  %4 = add i64 %2, 1
  %5 = icmp ugt i64 %4, 32768
  br i1 %5, label %6, label %8

6:                                                ; preds = %3
  %7 = tail call noalias ptr @_emalloc(i64 noundef %4) #26
  br label %10

8:                                                ; preds = %3
  %9 = alloca i8, i64 %4, align 16
  br label %10

10:                                               ; preds = %6, %8
  %11 = phi ptr [ %9, %8 ], [ %7, %6 ]
  %12 = call ptr @zend_str_tolower_copy(ptr noundef %11, ptr noundef %1, i64 noundef %2) #27
  %13 = call ptr @zend_hash_str_find(ptr noundef %0, ptr noundef %12, i64 noundef %2)
  %.not = icmp eq ptr %13, null
  br i1 %.not, label %16, label %14

14:                                               ; preds = %10
  %15 = load ptr, ptr %13, align 8, !nonnull !4, !noundef !4
  br label %16

16:                                               ; preds = %10, %14
  %.0 = phi ptr [ %15, %14 ], [ null, %10 ]
  br i1 %5, label %17, label %18

17:                                               ; preds = %16
  call void @_efree(ptr noundef %12) #27
  br label %18

18:                                               ; preds = %16, %17
  ret ptr %.0
}